target datalayout = "e-m:e-p270:32:32-p271:32:32-p272:64:64-i64:64-i128:128-f80:128-n8:16:32:64-S128"
target triple = "x86_64-pc-linux-gnu"

@scan8 = internal constant [51 x i8] c"\0C\0D\14\15\0E\0F\16\17\1C\1D$%\1E\1F&'45<=67>?DELMFGNO\\]de^_fglmtunovw\00(P", align 16

; Function Attrs: alwaysinline nounwind willreturn memory(none) uwtable
define internal zeroext i8 @av_clip_uint8_c(i32 noundef %0) #2 {
  %2 = alloca i8, align 1
  %3 = alloca i32, align 4
  store i32 %0, ptr %3, align 4, !tbaa !11
  %4 = load i32, ptr %3, align 4, !tbaa !11
  %5 = and i32 %4, -256
  %6 = icmp ne i32 %5, 0
  br i1 %6, label %7, label %12

7:                                                ; preds = %1
  %8 = load i32, ptr %3, align 4, !tbaa !11
  %9 = xor i32 %8, -1
  %10 = ashr i32 %9, 31
  %11 = trunc i32 %10 to i8
  store i8 %11, ptr %2, align 1
  br label %15

12:                                               ; preds = %1
  %13 = load i32, ptr %3, align 4, !tbaa !11
  %14 = trunc i32 %13 to i8
  store i8 %14, ptr %2, align 1
  br label %15

15:                                               ; preds = %12, %7
  %16 = load i8, ptr %2, align 1
  ret i8 %16
}

; Function Attrs: nounwind uwtable
define void @ff_h264_idct8_dc_add_8_c(ptr noundef %0, ptr noundef %1, i32 noundef %2) #0 {
  %4 = alloca ptr, align 8
  %5 = alloca ptr, align 8
  %6 = alloca i32, align 4
  %7 = alloca i32, align 4
  %8 = alloca i32, align 4
  %9 = alloca ptr, align 8
  %10 = alloca ptr, align 8
  %11 = alloca i32, align 4
  store ptr %0, ptr %4, align 8, !tbaa !4
  store ptr %1, ptr %5, align 8, !tbaa !9
  store i32 %2, ptr %6, align 4, !tbaa !11
  call void @llvm.lifetime.start.p0(i64 4, ptr %7) #4
  call void @llvm.lifetime.start.p0(i64 4, ptr %8) #4
  call void @llvm.lifetime.start.p0(i64 8, ptr %9) #4
  %12 = load ptr, ptr %4, align 8, !tbaa !4
  store ptr %12, ptr %9, align 8, !tbaa !4
  call void @llvm.lifetime.start.p0(i64 8, ptr %10) #4
  %13 = load ptr, ptr %5, align 8, !tbaa !9
  store ptr %13, ptr %10, align 8, !tbaa !9
  call void @llvm.lifetime.start.p0(i64 4, ptr %11) #4
  %14 = load ptr, ptr %10, align 8, !tbaa !9
  %15 = getelementptr inbounds i16, ptr %14, i64 0
  %16 = load i16, ptr %15, align 2, !tbaa !13
  %17 = sext i16 %16 to i32
  %18 = add nsw i32 %17, 32
  %19 = ashr i32 %18, 6
  store i32 %19, ptr %11, align 4, !tbaa !11
  %20 = load ptr, ptr %10, align 8, !tbaa !9
  %21 = getelementptr inbounds i16, ptr %20, i64 0
  store i16 0, ptr %21, align 2, !tbaa !13
  %22 = load i32, ptr %6, align 4, !tbaa !11
  %23 = sext i32 %22 to i64
  %24 = udiv i64 %23, 1
  %25 = trunc i64 %24 to i32
  store i32 %25, ptr %6, align 4, !tbaa !11
  store i32 0, ptr %8, align 4, !tbaa !11
  br label %26

26:                                               ; preds = %55, %3
  %27 = load i32, ptr %8, align 4, !tbaa !11
  %28 = icmp slt i32 %27, 8
  br i1 %28, label %29, label %58

29:                                               ; preds = %26
  store i32 0, ptr %7, align 4, !tbaa !11
  br label %30

30:                                               ; preds = %47, %29
  %31 = load i32, ptr %7, align 4, !tbaa !11
  %32 = icmp slt i32 %31, 8
  br i1 %32, label %33, label %50

33:                                               ; preds = %30
  %34 = load ptr, ptr %9, align 8, !tbaa !4
  %35 = load i32, ptr %7, align 4, !tbaa !11
  %36 = sext i32 %35 to i64
  %37 = getelementptr inbounds i8, ptr %34, i64 %36
  %38 = load i8, ptr %37, align 1, !tbaa !17
  %39 = zext i8 %38 to i32
  %40 = load i32, ptr %11, align 4, !tbaa !11
  %41 = add nsw i32 %39, %40
  %42 = call zeroext i8 @av_clip_uint8_c(i32 noundef %41) #5
  %43 = load ptr, ptr %9, align 8, !tbaa !4
  %44 = load i32, ptr %7, align 4, !tbaa !11
  %45 = sext i32 %44 to i64
  %46 = getelementptr inbounds i8, ptr %43, i64 %45
  store i8 %42, ptr %46, align 1, !tbaa !17
  br label %47

47:                                               ; preds = %33
  %48 = load i32, ptr %7, align 4, !tbaa !11
  %49 = add nsw i32 %48, 1
  store i32 %49, ptr %7, align 4, !tbaa !11
  br label %30, !llvm.loop !23

50:                                               ; preds = %30
  %51 = load i32, ptr %6, align 4, !tbaa !11
  %52 = load ptr, ptr %9, align 8, !tbaa !4
  %53 = sext i32 %51 to i64
  %54 = getelementptr inbounds i8, ptr %52, i64 %53
  store ptr %54, ptr %9, align 8, !tbaa !4
  br label %55

55:                                               ; preds = %50
  %56 = load i32, ptr %8, align 4, !tbaa !11
  %57 = add nsw i32 %56, 1
  store i32 %57, ptr %8, align 4, !tbaa !11
  br label %26, !llvm.loop !24

58:                                               ; preds = %26
  call void @llvm.lifetime.end.p0(i64 4, ptr %11) #4
  call void @llvm.lifetime.end.p0(i64 8, ptr %10) #4
  call void @llvm.lifetime.end.p0(i64 8, ptr %9) #4
  call void @llvm.lifetime.end.p0(i64 4, ptr %8) #4
  call void @llvm.lifetime.end.p0(i64 4, ptr %7) #4
  ret void
}

; Function Attrs: nounwind uwtable
define void @ff_h264_idct8_add4_8_c(ptr noundef %0, ptr noundef %1, ptr noundef %2, i32 noundef %3, ptr noundef %4) #0 {
  %6 = alloca ptr, align 8
  %7 = alloca ptr, align 8
  %8 = alloca ptr, align 8
  %9 = alloca i32, align 4
  %10 = alloca ptr, align 8
  %11 = alloca i32, align 4
  %12 = alloca i32, align 4
  store ptr %0, ptr %6, align 8, !tbaa !4
  store ptr %1, ptr %7, align 8, !tbaa !25
  store ptr %2, ptr %8, align 8, !tbaa !9
  store i32 %3, ptr %9, align 4, !tbaa !11
  store ptr %4, ptr %10, align 8, !tbaa !4
  call void @llvm.lifetime.start.p0(i64 4, ptr %11) #4
  store i32 0, ptr %11, align 4, !tbaa !11
  br label %13

13:                                               ; preds = %74, %5
  %14 = load i32, ptr %11, align 4, !tbaa !11
  %15 = icmp slt i32 %14, 16
  br i1 %15, label %16, label %77

16:                                               ; preds = %13
  call void @llvm.lifetime.start.p0(i64 4, ptr %12) #4
  %17 = load ptr, ptr %10, align 8, !tbaa !4
  %18 = load i32, ptr %11, align 4, !tbaa !11
  %19 = sext i32 %18 to i64
  %20 = getelementptr inbounds [51 x i8], ptr @scan8, i64 0, i64 %19
  %21 = load i8, ptr %20, align 1, !tbaa !17
  %22 = zext i8 %21 to i64
  %23 = getelementptr inbounds nuw i8, ptr %17, i64 %22
  %24 = load i8, ptr %23, align 1, !tbaa !17
  %25 = zext i8 %24 to i32
  store i32 %25, ptr %12, align 4, !tbaa !11
  %26 = load i32, ptr %12, align 4, !tbaa !11
  %27 = icmp ne i32 %26, 0
  br i1 %27, label %28, label %73

28:                                               ; preds = %16
  %29 = load i32, ptr %12, align 4, !tbaa !11
  %30 = icmp eq i32 %29, 1
  br i1 %30, label %31, label %56

31:                                               ; preds = %28
  %32 = load ptr, ptr %8, align 8, !tbaa !9
  %33 = load i32, ptr %11, align 4, !tbaa !11
  %34 = mul nsw i32 %33, 16
  %35 = sext i32 %34 to i64
  %36 = getelementptr inbounds i16, ptr %32, i64 %35
  %37 = load i16, ptr %36, align 2, !tbaa !13
  %38 = sext i16 %37 to i32
  %39 = icmp ne i32 %38, 0
  br i1 %39, label %40, label %56

40:                                               ; preds = %31
  %41 = load ptr, ptr %6, align 8, !tbaa !4
  %42 = load ptr, ptr %7, align 8, !tbaa !25
  %43 = load i32, ptr %11, align 4, !tbaa !11
  %44 = sext i32 %43 to i64
  %45 = getelementptr inbounds i32, ptr %42, i64 %44
  %46 = load i32, ptr %45, align 4, !tbaa !11
  %47 = sext i32 %46 to i64
  %48 = getelementptr inbounds i8, ptr %41, i64 %47
  %49 = load ptr, ptr %8, align 8, !tbaa !9
  %50 = load i32, ptr %11, align 4, !tbaa !11
  %51 = mul nsw i32 %50, 16
  %52 = sext i32 %51 to i64
  %53 = mul i64 %52, 1
  %54 = getelementptr inbounds nuw i16, ptr %49, i64 %53
  %55 = load i32, ptr %9, align 4, !tbaa !11
  call void @ff_h264_idct8_dc_add_8_c(ptr noundef %48, ptr noundef %54, i32 noundef %55)
  br label %72

56:                                               ; preds = %31, %28
  %57 = load ptr, ptr %6, align 8, !tbaa !4
  %58 = load ptr, ptr %7, align 8, !tbaa !25
  %59 = load i32, ptr %11, align 4, !tbaa !11
  %60 = sext i32 %59 to i64
  %61 = getelementptr inbounds i32, ptr %58, i64 %60
  %62 = load i32, ptr %61, align 4, !tbaa !11
  %63 = sext i32 %62 to i64
  %64 = getelementptr inbounds i8, ptr %57, i64 %63
  %65 = load ptr, ptr %8, align 8, !tbaa !9
  %66 = load i32, ptr %11, align 4, !tbaa !11
  %67 = mul nsw i32 %66, 16
  %68 = sext i32 %67 to i64
  %69 = mul i64 %68, 1
  %70 = getelementptr inbounds nuw i16, ptr %65, i64 %69
  %71 = load i32, ptr %9, align 4, !tbaa !11
  call void @ff_h264_idct8_add_8_c(ptr noundef %64, ptr noundef %70, i32 noundef %71)
  br label %72

72:                                               ; preds = %56, %40
  br label %73

73:                                               ; preds = %72, %16
  call void @llvm.lifetime.end.p0(i64 4, ptr %12) #4
  br label %74

74:                                               ; preds = %73
  %75 = load i32, ptr %11, align 4, !tbaa !11
  %76 = add nsw i32 %75, 4
  store i32 %76, ptr %11, align 4, !tbaa !11
  br label %13, !llvm.loop !29

77:                                               ; preds = %13
  call void @llvm.lifetime.end.p0(i64 4, ptr %11) #4
  ret void
}